target datalayout = "e-m:e-p270:32:32-p271:32:32-p272:64:64-i64:64-i128:128-f80:128-n8:16:32:64-S128"
target triple = "x86_64-unknown-linux-gnu"

%"class.icu_75::UObject" = type { ptr }
%"class.icu_75::CollationLoader" = type { ptr, ptr, %"class.icu_75::Locale", %"class.icu_75::Locale", [16 x i8], [16 x i8], i32, i8, ptr, ptr, ptr }
%"class.icu_75::Locale" = type <{ %"class.icu_75::UObject", [12 x i8], [6 x i8], [4 x i8], [2 x i8], i32, [4 x i8], ptr, [157 x i8], [3 x i8], ptr, i8, [7 x i8] }>

@.str = private unnamed_addr constant [14 x i8] c"icudt75l-coll\00", align 1
@.str.5 = private unnamed_addr constant [10 x i8] c"collation\00", align 1

; Function Attrs: mustprogress uwtable
define linkonce_odr noundef zeroext i1 @_ZNK6icu_756LocaleneERKS0_(ptr noundef nonnull align 8 dereferenceable(217) %this, ptr noundef nonnull align 8 dereferenceable(217) %other) #1 comdat align 2 {
entry:
  %this.addr = alloca ptr, align 8
  %other.addr = alloca ptr, align 8
  store ptr %this, ptr %this.addr, align 8
  store ptr %other, ptr %other.addr, align 8
  %this1 = load ptr, ptr %this.addr, align 8
  %0 = load ptr, ptr %other.addr, align 8
  %call = call noundef zeroext i1 @_ZNK6icu_756LocaleeqERKS0_(ptr noundef nonnull align 8 dereferenceable(217) %this1, ptr noundef nonnull align 8 dereferenceable(217) %0)
  %lnot = xor i1 %call, true
  ret i1 %lnot
}

; Function Attrs: mustprogress nounwind uwtable
define internal noundef signext i8 @_ZL9U_FAILURE10UErrorCode(i32 noundef %code) #0 {
entry:
  %code.addr = alloca i32, align 4
  store i32 %code, ptr %code.addr, align 4
  %0 = load i32, ptr %code.addr, align 4
  %cmp = icmp sgt i32 %0, 0
  %conv = zext i1 %cmp to i8
  ret i8 %conv
}

; Function Attrs: mustprogress uwtable
define noundef ptr @_ZN6icu_7515CollationLoader14loadFromLocaleER10UErrorCode(ptr noundef nonnull align 8 dereferenceable(528) %this, ptr noundef nonnull align 4 dereferenceable(4) %errorCode) #1 align 2 personality ptr @__gxx_personality_v0 {
entry:
  %retval = alloca ptr, align 8
  %this.addr = alloca ptr, align 8
  %errorCode.addr = alloca ptr, align 8
  %requestedLocale = alloca %"class.icu_75::Locale", align 8
  %vLocale = alloca ptr, align 8
  %exn.slot = alloca ptr, align 8
  %ehselector.slot = alloca i32, align 4
  %cleanup.dest.slot = alloca i32, align 4
  %ref.tmp = alloca %"class.icu_75::Locale", align 8
  store ptr %this, ptr %this.addr, align 8
  store ptr %errorCode, ptr %errorCode.addr, align 8
  %this1 = load ptr, ptr %this.addr, align 8
  %0 = load ptr, ptr %errorCode.addr, align 8
  %1 = load i32, ptr %0, align 4
  %call = call noundef signext i8 @_ZL9U_FAILURE10UErrorCode(i32 noundef %1)
  %tobool = icmp ne i8 %call, 0
  br i1 %tobool, label %if.then, label %if.end

if.then:                                          ; preds = %entry
  store ptr null, ptr %retval, align 8
  br label %return

if.end:                                           ; preds = %entry
  %locale = getelementptr inbounds %"class.icu_75::CollationLoader", ptr %this1, i32 0, i32 3
  %call2 = call noundef ptr @_ZNK6icu_756Locale11getBaseNameEv(ptr noundef nonnull align 8 dereferenceable(217) %locale)
  %2 = load ptr, ptr %errorCode.addr, align 8
  %call3 = call ptr @ures_openNoDefault_75(ptr noundef @.str, ptr noundef %call2, ptr noundef %2)
  %bundle = getelementptr inbounds %"class.icu_75::CollationLoader", ptr %this1, i32 0, i32 8
  store ptr %call3, ptr %bundle, align 8
  %3 = load ptr, ptr %errorCode.addr, align 8
  %4 = load i32, ptr %3, align 4
  %cmp = icmp eq i32 %4, 2
  br i1 %cmp, label %if.then4, label %if.end6

if.then4:                                         ; preds = %if.end
  %5 = load ptr, ptr %errorCode.addr, align 8
  store i32 -127, ptr %5, align 4
  %rootEntry = getelementptr inbounds %"class.icu_75::CollationLoader", ptr %this1, i32 0, i32 1
  %6 = load ptr, ptr %rootEntry, align 8
  call void @_ZNK6icu_7512SharedObject6addRefEv(ptr noundef nonnull align 8 dereferenceable(24) %6)
  %rootEntry5 = getelementptr inbounds %"class.icu_75::CollationLoader", ptr %this1, i32 0, i32 1
  %7 = load ptr, ptr %rootEntry5, align 8
  store ptr %7, ptr %retval, align 8
  br label %return

if.end6:                                          ; preds = %if.end
  %locale7 = getelementptr inbounds %"class.icu_75::CollationLoader", ptr %this1, i32 0, i32 3
  call void @_ZN6icu_756LocaleC1ERKS0_(ptr noundef nonnull align 8 dereferenceable(217) %requestedLocale, ptr noundef nonnull align 8 dereferenceable(217) %locale7)
  %bundle8 = getelementptr inbounds %"class.icu_75::CollationLoader", ptr %this1, i32 0, i32 8
  %8 = load ptr, ptr %bundle8, align 8
  %9 = load ptr, ptr %errorCode.addr, align 8
  %call9 = invoke ptr @ures_getLocaleByType_75(ptr noundef %8, i32 noundef 0, ptr noundef %9)
          to label %invoke.cont unwind label %lpad

invoke.cont:                                      ; preds = %if.end6
  store ptr %call9, ptr %vLocale, align 8
  %10 = load ptr, ptr %errorCode.addr, align 8
  %11 = load i32, ptr %10, align 4
  %call11 = invoke noundef signext i8 @_ZL9U_FAILURE10UErrorCode(i32 noundef %11)
          to label %invoke.cont10 unwind label %lpad

invoke.cont10:                                    ; preds = %invoke.cont
  %tobool12 = icmp ne i8 %call11, 0
  br i1 %tobool12, label %if.then13, label %if.end14

if.then13:                                        ; preds = %invoke.cont10
  store ptr null, ptr %retval, align 8
  store i32 1, ptr %cleanup.dest.slot, align 4
  br label %cleanup

lpad:                                             ; preds = %if.else, %if.then30, %if.end26, %if.then22, %if.end14, %invoke.cont, %if.end6
  %12 = landingpad { ptr, i32 }
          cleanup
  %13 = extractvalue { ptr, i32 } %12, 0
  store ptr %13, ptr %exn.slot, align 8
  %14 = extractvalue { ptr, i32 } %12, 1
  store i32 %14, ptr %ehselector.slot, align 4
  br label %ehcleanup

if.end14:                                         ; preds = %invoke.cont10
  %15 = load ptr, ptr %vLocale, align 8
  invoke void @_ZN6icu_756LocaleC1EPKcS2_S2_S2_(ptr noundef nonnull align 8 dereferenceable(217) %ref.tmp, ptr noundef %15, ptr noundef null, ptr noundef null, ptr noundef null)
          to label %invoke.cont15 unwind label %lpad

invoke.cont15:                                    ; preds = %if.end14
  %validLocale = getelementptr inbounds %"class.icu_75::CollationLoader", ptr %this1, i32 0, i32 2
  %call16 = call noundef nonnull align 8 dereferenceable(217) ptr @_ZN6icu_756LocaleaSEOS0_(ptr noundef nonnull align 8 dereferenceable(217) %validLocale, ptr noundef nonnull align 8 dereferenceable(217) %ref.tmp) #9
  %locale17 = getelementptr inbounds %"class.icu_75::CollationLoader", ptr %this1, i32 0, i32 3
  %call20 = invoke noundef nonnull align 8 dereferenceable(217) ptr @_ZN6icu_756LocaleaSERKS0_(ptr noundef nonnull align 8 dereferenceable(217) %locale17, ptr noundef nonnull align 8 dereferenceable(217) %call16)
          to label %invoke.cont19 unwind label %lpad18

invoke.cont19:                                    ; preds = %invoke.cont15
  call void @_ZN6icu_756LocaleD1Ev(ptr noundef nonnull align 8 dereferenceable(217) %ref.tmp) #9
  %type = getelementptr inbounds %"class.icu_75::CollationLoader", ptr %this1, i32 0, i32 4
  %arrayidx = getelementptr inbounds [16 x i8], ptr %type, i64 0, i64 0
  %16 = load i8, ptr %arrayidx, align 8
  %conv = sext i8 %16 to i32
  %cmp21 = icmp ne i32 %conv, 0
  br i1 %cmp21, label %if.then22, label %if.end26

if.then22:                                        ; preds = %invoke.cont19
  %locale23 = getelementptr inbounds %"class.icu_75::CollationLoader", ptr %this1, i32 0, i32 3
  %type24 = getelementptr inbounds %"class.icu_75::CollationLoader", ptr %this1, i32 0, i32 4
  %arraydecay = getelementptr inbounds [16 x i8], ptr %type24, i64 0, i64 0
  %17 = load ptr, ptr %errorCode.addr, align 8
  invoke void @_ZN6icu_756Locale15setKeywordValueEPKcS2_R10UErrorCode(ptr noundef nonnull align 8 dereferenceable(217) %locale23, ptr noundef @.str.5, ptr noundef %arraydecay, ptr noundef nonnull align 4 dereferenceable(4) %17)
          to label %invoke.cont25 unwind label %lpad

invoke.cont25:                                    ; preds = %if.then22
  br label %if.end26

lpad18:                                           ; preds = %invoke.cont15
  %18 = landingpad { ptr, i32 }
          cleanup
  %19 = extractvalue { ptr, i32 } %18, 0
  store ptr %19, ptr %exn.slot, align 8
  %20 = extractvalue { ptr, i32 } %18, 1
  store i32 %20, ptr %ehselector.slot, align 4
  call void @_ZN6icu_756LocaleD1Ev(ptr noundef nonnull align 8 dereferenceable(217) %ref.tmp) #9
  br label %ehcleanup

if.end26:                                         ; preds = %invoke.cont25, %invoke.cont19
  %locale27 = getelementptr inbounds %"class.icu_75::CollationLoader", ptr %this1, i32 0, i32 3
  %call29 = invoke noundef zeroext i1 @_ZNK6icu_756LocaleneERKS0_(ptr noundef nonnull align 8 dereferenceable(217) %locale27, ptr noundef nonnull align 8 dereferenceable(217) %requestedLocale)
          to label %invoke.cont28 unwind label %lpad

invoke.cont28:                                    ; preds = %if.end26
  br i1 %call29, label %if.then30, label %if.else

if.then30:                                        ; preds = %invoke.cont28
  %21 = load ptr, ptr %errorCode.addr, align 8
  %call32 = invoke noundef ptr @_ZN6icu_7515CollationLoader13getCacheEntryER10UErrorCode(ptr noundef nonnull align 8 dereferenceable(528) %this1, ptr noundef nonnull align 4 dereferenceable(4) %21)
          to label %invoke.cont31 unwind label %lpad

invoke.cont31:                                    ; preds = %if.then30
  store ptr %call32, ptr %retval, align 8
  store i32 1, ptr %cleanup.dest.slot, align 4
  br label %cleanup

if.else:                                          ; preds = %invoke.cont28
  %22 = load ptr, ptr %errorCode.addr, align 8
  %call34 = invoke noundef ptr @_ZN6icu_7515CollationLoader14loadFromBundleER10UErrorCode(ptr noundef nonnull align 8 dereferenceable(528) %this1, ptr noundef nonnull align 4 dereferenceable(4) %22)
          to label %invoke.cont33 unwind label %lpad

invoke.cont33:                                    ; preds = %if.else
  store ptr %call34, ptr %retval, align 8
  store i32 1, ptr %cleanup.dest.slot, align 4
  br label %cleanup

cleanup:                                          ; preds = %invoke.cont33, %invoke.cont31, %if.then13
  call void @_ZN6icu_756LocaleD1Ev(ptr noundef nonnull align 8 dereferenceable(217) %requestedLocale) #9
  br label %return

ehcleanup:                                        ; preds = %lpad18, %lpad
  call void @_ZN6icu_756LocaleD1Ev(ptr noundef nonnull align 8 dereferenceable(217) %requestedLocale) #9
  br label %eh.resume

return:                                           ; preds = %cleanup, %if.then4, %if.then
  %23 = load ptr, ptr %retval, align 8
  ret ptr %23

eh.resume:                                        ; preds = %ehcleanup
  %exn = load ptr, ptr %exn.slot, align 8
  %sel = load i32, ptr %ehselector.slot, align 4
  %lpad.val = insertvalue { ptr, i32 } poison, ptr %exn, 0
  %lpad.val35 = insertvalue { ptr, i32 } %lpad.val, i32 %sel, 1
  resume { ptr, i32 } %lpad.val35
}