; Function Attrs: mustprogress uwtable
define noundef ptr @_ZN6icu_7515CollationLoader14loadFromLocaleER10UErrorCode(ptr noundef nonnull align 8 dereferenceable(528) %this, ptr noundef nonnull align 4 dereferenceable(4) %errorCode) local_unnamed_addr #1 align 2 personality ptr @__gxx_personality_v0 {
entry:
  %requestedLocale = alloca %"class.icu_75::Locale", align 8
  %ref.tmp = alloca %"class.icu_75::Locale", align 8
  %0 = load i32, ptr %errorCode, align 4
  %cmp.i = icmp slt i32 %0, 1
  br i1 %cmp.i, label %if.end, label %return

if.end:                                           ; preds = %entry
  %locale = getelementptr inbounds i8, ptr %this, i64 240
  %call2 = tail call noundef ptr @_ZNK6icu_756Locale11getBaseNameEv(ptr noundef nonnull align 8 dereferenceable(217) %locale)
  %call3 = tail call ptr @ures_openNoDefault_75(ptr noundef nonnull @.str, ptr noundef %call2, ptr noundef nonnull %errorCode)
  %bundle = getelementptr inbounds i8, ptr %this, i64 504
  store ptr %call3, ptr %bundle, align 8
  %1 = load i32, ptr %errorCode, align 4
  %cmp = icmp eq i32 %1, 2
  br i1 %cmp, label %if.then4, label %if.end6

if.then4:                                         ; preds = %if.end
  store i32 -127, ptr %errorCode, align 4
  %rootEntry = getelementptr inbounds i8, ptr %this, i64 8
  %2 = load ptr, ptr %rootEntry, align 8
  tail call void @_ZNK6icu_7512SharedObject6addRefEv(ptr noundef nonnull align 8 dereferenceable(24) %2)
  %3 = load ptr, ptr %rootEntry, align 8
  br label %return

if.end6:                                          ; preds = %if.end
  call void @_ZN6icu_756LocaleC1ERKS0_(ptr noundef nonnull align 8 dereferenceable(217) %requestedLocale, ptr noundef nonnull align 8 dereferenceable(217) %locale)
  %4 = load ptr, ptr %bundle, align 8
  %call9 = invoke ptr @ures_getLocaleByType_75(ptr noundef %4, i32 noundef 0, ptr noundef nonnull %errorCode)
          to label %invoke.cont unwind label %lpad

invoke.cont:                                      ; preds = %if.end6
  %5 = load i32, ptr %errorCode, align 4
  %cmp.i10 = icmp slt i32 %5, 1
  br i1 %cmp.i10, label %if.end14, label %cleanup

lpad:                                             ; preds = %if.end26, %if.else, %if.then30, %if.then22, %if.end14, %if.end6
  %6 = landingpad { ptr, i32 }
          cleanup
  br label %ehcleanup

if.end14:                                         ; preds = %invoke.cont
  invoke void @_ZN6icu_756LocaleC1EPKcS2_S2_S2_(ptr noundef nonnull align 8 dereferenceable(217) %ref.tmp, ptr noundef %call9, ptr noundef null, ptr noundef null, ptr noundef null)
          to label %invoke.cont15 unwind label %lpad

invoke.cont15:                                    ; preds = %if.end14
  %validLocale = getelementptr inbounds i8, ptr %this, i64 16
  %call16 = call noundef nonnull align 8 dereferenceable(217) ptr @_ZN6icu_756LocaleaSEOS0_(ptr noundef nonnull align 8 dereferenceable(217) %validLocale, ptr noundef nonnull align 8 dereferenceable(217) %ref.tmp) #13
  %call20 = invoke noundef nonnull align 8 dereferenceable(217) ptr @_ZN6icu_756LocaleaSERKS0_(ptr noundef nonnull align 8 dereferenceable(217) %locale, ptr noundef nonnull align 8 dereferenceable(217) %call16)
          to label %invoke.cont19 unwind label %lpad18

invoke.cont19:                                    ; preds = %invoke.cont15
  call void @_ZN6icu_756LocaleD1Ev(ptr noundef nonnull align 8 dereferenceable(217) %ref.tmp) #13
  %type = getelementptr inbounds i8, ptr %this, i64 464
  %7 = load i8, ptr %type, align 8
  %cmp21.not = icmp eq i8 %7, 0
  br i1 %cmp21.not, label %if.end26, label %if.then22

if.then22:                                        ; preds = %invoke.cont19
  invoke void @_ZN6icu_756Locale15setKeywordValueEPKcS2_R10UErrorCode(ptr noundef nonnull align 8 dereferenceable(217) %locale, ptr noundef nonnull @.str.5, ptr noundef nonnull %type, ptr noundef nonnull align 4 dereferenceable(4) %errorCode)
          to label %if.end26 unwind label %lpad

lpad18:                                           ; preds = %invoke.cont15
  %8 = landingpad { ptr, i32 }
          cleanup
  call void @_ZN6icu_756LocaleD1Ev(ptr noundef nonnull align 8 dereferenceable(217) %ref.tmp) #13
  br label %ehcleanup

if.end26:                                         ; preds = %if.then22, %invoke.cont19
  %call.i12 = invoke noundef zeroext i1 @_ZNK6icu_756LocaleeqERKS0_(ptr noundef nonnull align 8 dereferenceable(217) %locale, ptr noundef nonnull align 8 dereferenceable(217) %requestedLocale)
          to label %invoke.cont28 unwind label %lpad

invoke.cont28:                                    ; preds = %if.end26
  br i1 %call.i12, label %if.else, label %if.then30

if.then30:                                        ; preds = %invoke.cont28
  %call32 = invoke noundef ptr @_ZN6icu_7515CollationLoader13getCacheEntryER10UErrorCode(ptr noundef nonnull align 8 dereferenceable(528) %this, ptr noundef nonnull align 4 dereferenceable(4) %errorCode)
          to label %cleanup unwind label %lpad

if.else:                                          ; preds = %invoke.cont28
  %call34 = invoke noundef ptr @_ZN6icu_7515CollationLoader14loadFromBundleER10UErrorCode(ptr noundef nonnull align 8 dereferenceable(528) %this, ptr noundef nonnull align 4 dereferenceable(4) %errorCode)
          to label %cleanup unwind label %lpad

cleanup:                                          ; preds = %if.else, %if.then30, %invoke.cont
  %retval.0 = phi ptr [ null, %invoke.cont ], [ %call32, %if.then30 ], [ %call34, %if.else ]
  call void @_ZN6icu_756LocaleD1Ev(ptr noundef nonnull align 8 dereferenceable(217) %requestedLocale) #13
  br label %return

ehcleanup:                                        ; preds = %lpad18, %lpad
  %.pn = phi { ptr, i32 } [ %6, %lpad ], [ %8, %lpad18 ]
  call void @_ZN6icu_756LocaleD1Ev(ptr noundef nonnull align 8 dereferenceable(217) %requestedLocale) #13
  resume { ptr, i32 } %.pn

return:                                           ; preds = %entry, %cleanup, %if.then4
  %retval.1 = phi ptr [ %3, %if.then4 ], [ %retval.0, %cleanup ], [ null, %entry ]
  ret ptr %retval.1
}